; Function Attrs: mustprogress nofree norecurse nosync nounwind willreturn memory(write, argmem: readwrite, inaccessiblemem: none) uwtable
define internal void @get_hash_key(ptr noundef readonly captures(none) %0, ptr readnone captures(none) %1, ptr noundef captures(none) %2) #4 {
  %4 = load i32, ptr %0, align 4
  %5 = getelementptr inbounds nuw i8, ptr %2, i64 8
  %6 = load ptr, ptr %5, align 8
  %7 = load i32, ptr %2, align 8
  %8 = sext i32 %7 to i64
  %9 = getelementptr i32, ptr %6, i64 %8
  store i32 %4, ptr %9, align 4
  %10 = load i32, ptr %2, align 8
  %11 = add i32 %10, 1
  store i32 %11, ptr %2, align 8
  ret void
}